target datalayout = "e-m:e-p270:32:32-p271:32:32-p272:64:64-i64:64-i128:128-f80:128-n8:16:32:64-S128"
target triple = "x86_64-pc-linux-gnu"

%struct.expert_field = type { i32, i32 }

@ett_bgp_mp_reach_nlri = internal global i32 0, align 4
@hf_bgp_ls_type = internal global i32 0, align 4
@hf_bgp_ls_length = internal global i32 0, align 4
@hf_bgp_ls_nlri_srv6_sid_descriptors_tlv = internal global i32 0, align 4
@hf_bgp_ls_nlri_multi_topology_id = internal global i32 0, align 4
@hf_bgp_ls_tlv_multi_topology_id = internal global i32 0, align 4
@hf_bgp_ls_tlv_srv6_sid_info = internal global i32 0, align 4
@hf_bgp_ls_tlv_srv6_sid_info_sid = internal global i32 0, align 4
@ei_bgp_ls_error = internal global %struct.expert_field zeroinitializer, align 4
@.str.1840 = private unnamed_addr constant [42 x i8] c"Unknown data in Link-State SRv6 SID NLRI!\00", align 1
@.str.1911 = private unnamed_addr constant [69 x i8] c"Unexpected Multi Topology ID TLV's length (%u), it must be %u bytes!\00", align 1
@.str.1913 = private unnamed_addr constant [61 x i8] c"Reserved bits of Multi Topology ID must be set to zero! (%u)\00", align 1
@.str.1917 = private unnamed_addr constant [72 x i8] c"Unexpected SRv6 SID Information TLV's length (%u), it must be 16 bytes!\00", align 1
@.str.1918 = private unnamed_addr constant [43 x i8] c"Unknown SRv6 SID Descriptor TLV Code (%u)!\00", align 1

; Function Attrs: null_pointer_is_valid sspstrong uwtable
define internal i32 @decode_bgp_link_nlri_srv6_sid_descriptors(ptr noundef %0, ptr noundef %1, i32 noundef %2, ptr noundef %3, i32 noundef %4) #0 {
  %6 = alloca i32, align 4
  %7 = alloca ptr, align 8
  %8 = alloca ptr, align 8
  %9 = alloca i32, align 4
  %10 = alloca ptr, align 8
  %11 = alloca i32, align 4
  %12 = alloca i16, align 2
  %13 = alloca i16, align 2
  %14 = alloca i16, align 2
  %15 = alloca i16, align 2
  %16 = alloca ptr, align 8
  %17 = alloca ptr, align 8
  %18 = alloca ptr, align 8
  %19 = alloca ptr, align 8
  %20 = alloca i32, align 4
  store ptr %0, ptr %7, align 8
  store ptr %1, ptr %8, align 8
  store i32 %2, ptr %9, align 4
  store ptr %3, ptr %10, align 8
  store i32 %4, ptr %11, align 4
  call void @llvm.lifetime.start.p0(i64 2, ptr %12) #6
  call void @llvm.lifetime.start.p0(i64 2, ptr %13) #6
  call void @llvm.lifetime.start.p0(i64 2, ptr %14) #6
  call void @llvm.lifetime.start.p0(i64 2, ptr %15) #6
  call void @llvm.lifetime.start.p0(i64 8, ptr %16) #6
  call void @llvm.lifetime.start.p0(i64 8, ptr %17) #6
  call void @llvm.lifetime.start.p0(i64 8, ptr %18) #6
  call void @llvm.lifetime.start.p0(i64 8, ptr %19) #6
  %21 = load ptr, ptr %8, align 8
  %22 = load i32, ptr @hf_bgp_ls_nlri_srv6_sid_descriptors_tlv, align 4
  %23 = load ptr, ptr %7, align 8
  %24 = load i32, ptr %9, align 4
  %25 = load i32, ptr %11, align 4
  %26 = add i32 %25, 4
  %27 = call ptr @proto_tree_add_item(ptr noundef %21, i32 noundef %22, ptr noundef %23, i32 noundef %24, i32 noundef %26, i32 noundef 0)
  store ptr %27, ptr %16, align 8
  %28 = load ptr, ptr %16, align 8
  %29 = load i32, ptr @ett_bgp_mp_reach_nlri, align 4
  %30 = call ptr @proto_item_add_subtree(ptr noundef %28, i32 noundef %29)
  store ptr %30, ptr %17, align 8
  store i16 0, ptr %14, align 2
  br label %31

31:                                               ; preds = %151, %5
  %32 = load i32, ptr %11, align 4
  %33 = icmp sgt i32 %32, 0
  br i1 %33, label %34, label %169

34:                                               ; preds = %31
  %35 = load i32, ptr %11, align 4
  %36 = icmp slt i32 %35, 4
  br i1 %36, label %37, label %46

37:                                               ; preds = %34
  %38 = load ptr, ptr %10, align 8
  %39 = load ptr, ptr %8, align 8
  %40 = call ptr (ptr, ptr, ptr, ptr, ...) @expert_add_info_format(ptr noundef %38, ptr noundef %39, ptr noundef @ei_bgp_ls_error, ptr noundef @.str.1840)
  %41 = load i32, ptr %11, align 4
  %42 = load i16, ptr %14, align 2
  %43 = zext i16 %42 to i32
  %44 = add i32 %43, %41
  %45 = trunc i32 %44 to i16
  store i16 %45, ptr %14, align 2
  br label %169

46:                                               ; preds = %34
  %47 = load ptr, ptr %7, align 8
  %48 = load i32, ptr %9, align 4
  %49 = call zeroext i16 @tvb_get_ntohs(ptr noundef %47, i32 noundef %48)
  store i16 %49, ptr %13, align 2
  %50 = load ptr, ptr %7, align 8
  %51 = load i32, ptr %9, align 4
  %52 = add i32 %51, 2
  %53 = call zeroext i16 @tvb_get_ntohs(ptr noundef %50, i32 noundef %52)
  store i16 %53, ptr %12, align 2
  %54 = load i16, ptr %13, align 2
  %55 = zext i16 %54 to i32
  switch i32 %55, label %100 [
    i32 263, label %56
    i32 518, label %78
  ]

56:                                               ; preds = %46
  %57 = load i16, ptr %12, align 2
  %58 = zext i16 %57 to i32
  %59 = icmp ne i32 %58, 2
  br i1 %59, label %60, label %66

60:                                               ; preds = %56
  %61 = load ptr, ptr %10, align 8
  %62 = load ptr, ptr %17, align 8
  %63 = load i16, ptr %12, align 2
  %64 = zext i16 %63 to i32
  %65 = call ptr (ptr, ptr, ptr, ptr, ...) @expert_add_info_format(ptr noundef %61, ptr noundef %62, ptr noundef @ei_bgp_ls_error, ptr noundef @.str.1911, i32 noundef %64, i32 noundef 2)
  store i32 -1, ptr %6, align 4
  store i32 1, ptr %20, align 4
  br label %172

66:                                               ; preds = %56
  %67 = load ptr, ptr %17, align 8
  %68 = load i32, ptr @hf_bgp_ls_tlv_multi_topology_id, align 4
  %69 = load ptr, ptr %7, align 8
  %70 = load i32, ptr %9, align 4
  %71 = load i16, ptr %12, align 2
  %72 = zext i16 %71 to i32
  %73 = add i32 %72, 4
  %74 = call ptr @proto_tree_add_item(ptr noundef %67, i32 noundef %68, ptr noundef %69, i32 noundef %70, i32 noundef %73, i32 noundef 0)
  store ptr %74, ptr %18, align 8
  %75 = load ptr, ptr %18, align 8
  %76 = load i32, ptr @ett_bgp_mp_reach_nlri, align 4
  %77 = call ptr @proto_item_add_subtree(ptr noundef %75, i32 noundef %76)
  store ptr %77, ptr %19, align 8
  br label %106

78:                                               ; preds = %46
  %79 = load i16, ptr %12, align 2
  %80 = zext i16 %79 to i32
  %81 = icmp ne i32 %80, 16
  br i1 %81, label %82, label %88

82:                                               ; preds = %78
  %83 = load ptr, ptr %10, align 8
  %84 = load ptr, ptr %17, align 8
  %85 = load i16, ptr %12, align 2
  %86 = zext i16 %85 to i32
  %87 = call ptr (ptr, ptr, ptr, ptr, ...) @expert_add_info_format(ptr noundef %83, ptr noundef %84, ptr noundef @ei_bgp_ls_error, ptr noundef @.str.1917, i32 noundef %86)
  store i32 -1, ptr %6, align 4
  store i32 1, ptr %20, align 4
  br label %172

88:                                               ; preds = %78
  %89 = load ptr, ptr %17, align 8
  %90 = load i32, ptr @hf_bgp_ls_tlv_srv6_sid_info, align 4
  %91 = load ptr, ptr %7, align 8
  %92 = load i32, ptr %9, align 4
  %93 = load i16, ptr %12, align 2
  %94 = zext i16 %93 to i32
  %95 = add i32 %94, 4
  %96 = call ptr @proto_tree_add_item(ptr noundef %89, i32 noundef %90, ptr noundef %91, i32 noundef %92, i32 noundef %95, i32 noundef 0)
  store ptr %96, ptr %18, align 8
  %97 = load ptr, ptr %18, align 8
  %98 = load i32, ptr @ett_bgp_mp_reach_nlri, align 4
  %99 = call ptr @proto_item_add_subtree(ptr noundef %97, i32 noundef %98)
  store ptr %99, ptr %19, align 8
  br label %106

100:                                              ; preds = %46
  %101 = load ptr, ptr %10, align 8
  %102 = load ptr, ptr %17, align 8
  %103 = load i16, ptr %13, align 2
  %104 = zext i16 %103 to i32
  %105 = call ptr (ptr, ptr, ptr, ptr, ...) @expert_add_info_format(ptr noundef %101, ptr noundef %102, ptr noundef @ei_bgp_ls_error, ptr noundef @.str.1918, i32 noundef %104)
  store i32 -1, ptr %6, align 4
  store i32 1, ptr %20, align 4
  br label %172

106:                                              ; preds = %88, %66
  %107 = load ptr, ptr %19, align 8
  %108 = load i32, ptr @hf_bgp_ls_type, align 4
  %109 = load ptr, ptr %7, align 8
  %110 = load i32, ptr %9, align 4
  %111 = call ptr @proto_tree_add_item(ptr noundef %107, i32 noundef %108, ptr noundef %109, i32 noundef %110, i32 noundef 2, i32 noundef 0)
  %112 = load ptr, ptr %19, align 8
  %113 = load i32, ptr @hf_bgp_ls_length, align 4
  %114 = load ptr, ptr %7, align 8
  %115 = load i32, ptr %9, align 4
  %116 = add i32 %115, 2
  %117 = call ptr @proto_tree_add_item(ptr noundef %112, i32 noundef %113, ptr noundef %114, i32 noundef %116, i32 noundef 2, i32 noundef 0)
  %118 = load i16, ptr %13, align 2
  %119 = zext i16 %118 to i32
  switch i32 %119, label %151 [
    i32 263, label %120
    i32 518, label %144
  ]

120:                                              ; preds = %106
  %121 = load ptr, ptr %7, align 8
  %122 = load i32, ptr %9, align 4
  %123 = add i32 %122, 4
  %124 = call zeroext i16 @tvb_get_ntohs(ptr noundef %121, i32 noundef %123)
  store i16 %124, ptr %15, align 2
  %125 = load i16, ptr %15, align 2
  %126 = zext i16 %125 to i32
  %127 = ashr i32 %126, 12
  %128 = trunc i32 %127 to i16
  store i16 %128, ptr %15, align 2
  %129 = load i16, ptr %15, align 2
  %130 = icmp ne i16 %129, 0
  br i1 %130, label %131, label %137

131:                                              ; preds = %120
  %132 = load ptr, ptr %10, align 8
  %133 = load ptr, ptr %19, align 8
  %134 = load i16, ptr %15, align 2
  %135 = zext i16 %134 to i32
  %136 = call ptr (ptr, ptr, ptr, ptr, ...) @expert_add_info_format(ptr noundef %132, ptr noundef %133, ptr noundef @ei_bgp_ls_error, ptr noundef @.str.1913, i32 noundef %135)
  br label %137

137:                                              ; preds = %131, %120
  %138 = load ptr, ptr %19, align 8
  %139 = load i32, ptr @hf_bgp_ls_nlri_multi_topology_id, align 4
  %140 = load ptr, ptr %7, align 8
  %141 = load i32, ptr %9, align 4
  %142 = add i32 %141, 4
  %143 = call ptr @proto_tree_add_item(ptr noundef %138, i32 noundef %139, ptr noundef %140, i32 noundef %142, i32 noundef 2, i32 noundef 0)
  br label %151

144:                                              ; preds = %106
  %145 = load ptr, ptr %19, align 8
  %146 = load i32, ptr @hf_bgp_ls_tlv_srv6_sid_info_sid, align 4
  %147 = load ptr, ptr %7, align 8
  %148 = load i32, ptr %9, align 4
  %149 = add i32 %148, 4
  %150 = call ptr @proto_tree_add_item(ptr noundef %145, i32 noundef %146, ptr noundef %147, i32 noundef %149, i32 noundef 16, i32 noundef 0)
  br label %151

151:                                              ; preds = %106, %144, %137
  %152 = load i16, ptr %12, align 2
  %153 = zext i16 %152 to i32
  %154 = add i32 4, %153
  %155 = load i32, ptr %11, align 4
  %156 = sub i32 %155, %154
  store i32 %156, ptr %11, align 4
  %157 = load i16, ptr %12, align 2
  %158 = zext i16 %157 to i32
  %159 = add i32 4, %158
  %160 = load i32, ptr %9, align 4
  %161 = add i32 %160, %159
  store i32 %161, ptr %9, align 4
  %162 = load i16, ptr %12, align 2
  %163 = zext i16 %162 to i32
  %164 = add i32 4, %163
  %165 = load i16, ptr %14, align 2
  %166 = zext i16 %165 to i32
  %167 = add i32 %166, %164
  %168 = trunc i32 %167 to i16
  store i16 %168, ptr %14, align 2
  br label %31, !llvm.loop !60

169:                                              ; preds = %37, %31
  %170 = load i16, ptr %14, align 2
  %171 = zext i16 %170 to i32
  store i32 %171, ptr %6, align 4
  store i32 1, ptr %20, align 4
  br label %172

172:                                              ; preds = %169, %100, %82, %60
  call void @llvm.lifetime.end.p0(i64 8, ptr %19) #6
  call void @llvm.lifetime.end.p0(i64 8, ptr %18) #6
  call void @llvm.lifetime.end.p0(i64 8, ptr %17) #6
  call void @llvm.lifetime.end.p0(i64 8, ptr %16) #6
  call void @llvm.lifetime.end.p0(i64 2, ptr %15) #6
  call void @llvm.lifetime.end.p0(i64 2, ptr %14) #6
  call void @llvm.lifetime.end.p0(i64 2, ptr %13) #6
  call void @llvm.lifetime.end.p0(i64 2, ptr %12) #6
  %173 = load i32, ptr %6, align 4
  ret i32 %173
}