; Function Attrs: null_pointer_is_valid sspstrong uwtable
define internal fastcc range(i32 -1, 65536) i32 @decode_bgp_link_nlri_srv6_sid_descriptors(ptr noundef %0, ptr noundef %1, i32 noundef %2, ptr noundef %3, i32 noundef range(i32 1, 65535) %4) unnamed_addr #0 {
  %6 = load i32, ptr @hf_bgp_ls_nlri_srv6_sid_descriptors_tlv, align 4
  %7 = add nuw nsw i32 %4, 4
  %8 = tail call ptr @proto_tree_add_item(ptr noundef %1, i32 noundef %6, ptr noundef %0, i32 noundef %2, i32 noundef %7, i32 noundef 0)
  %9 = load i32, ptr @ett_bgp_mp_reach_nlri, align 4
  %10 = tail call ptr @proto_item_add_subtree(ptr noundef %8, i32 noundef %9)
  br label %11

11:                                               ; preds = %5, %62
  %.06592 = phi i32 [ %2, %5 ], [ %66, %62 ]
  %.06691 = phi i16 [ 0, %5 ], [ %68, %62 ]
  %.06790 = phi i32 [ %4, %5 ], [ %65, %62 ]
  %12 = icmp samesign ult i32 %.06790, 4
  br i1 %12, label %13, label %17

13:                                               ; preds = %11
  %14 = tail call ptr (ptr, ptr, ptr, ptr, ...) @expert_add_info_format(ptr noundef %3, ptr noundef %1, ptr noundef nonnull @ei_bgp_ls_error, ptr noundef nonnull @.str.1840)
  %15 = trunc nuw i32 %.06790 to i16
  %16 = add i16 %.06691, %15
  br label %.loopexit

17:                                               ; preds = %11
  %18 = tail call zeroext i16 @tvb_get_ntohs(ptr noundef %0, i32 noundef %.06592)
  %19 = add i32 %.06592, 2
  %20 = tail call zeroext i16 @tvb_get_ntohs(ptr noundef %0, i32 noundef %19)
  switch i16 %18, label %29 [
    i16 263, label %21
    i16 518, label %25
  ]

21:                                               ; preds = %17
  %.not73 = icmp eq i16 %20, 2
  br i1 %.not73, label %32, label %22

22:                                               ; preds = %21
  %23 = zext i16 %20 to i32
  %24 = tail call ptr (ptr, ptr, ptr, ptr, ...) @expert_add_info_format(ptr noundef %3, ptr noundef %10, ptr noundef nonnull @ei_bgp_ls_error, ptr noundef nonnull @.str.1911, i32 noundef %23, i32 noundef 2)
  br label %71

25:                                               ; preds = %17
  %.not = icmp eq i16 %20, 16
  br i1 %.not, label %50, label %26

26:                                               ; preds = %25
  %27 = zext i16 %20 to i32
  %28 = tail call ptr (ptr, ptr, ptr, ptr, ...) @expert_add_info_format(ptr noundef %3, ptr noundef %10, ptr noundef nonnull @ei_bgp_ls_error, ptr noundef nonnull @.str.1917, i32 noundef %27)
  br label %71

29:                                               ; preds = %17
  %30 = zext i16 %18 to i32
  %31 = tail call ptr (ptr, ptr, ptr, ptr, ...) @expert_add_info_format(ptr noundef %3, ptr noundef %10, ptr noundef nonnull @ei_bgp_ls_error, ptr noundef nonnull @.str.1918, i32 noundef %30)
  br label %71

32:                                               ; preds = %21
  %33 = load i32, ptr @hf_bgp_ls_tlv_multi_topology_id, align 4
  %34 = tail call ptr @proto_tree_add_item(ptr noundef %10, i32 noundef %33, ptr noundef %0, i32 noundef %.06592, i32 noundef 6, i32 noundef 0)
  %35 = load i32, ptr @ett_bgp_mp_reach_nlri, align 4
  %36 = tail call ptr @proto_item_add_subtree(ptr noundef %34, i32 noundef %35)
  %37 = load i32, ptr @hf_bgp_ls_type, align 4
  %38 = tail call ptr @proto_tree_add_item(ptr noundef %36, i32 noundef %37, ptr noundef %0, i32 noundef %.06592, i32 noundef 2, i32 noundef 0)
  %39 = load i32, ptr @hf_bgp_ls_length, align 4
  %40 = tail call ptr @proto_tree_add_item(ptr noundef %36, i32 noundef %39, ptr noundef %0, i32 noundef %19, i32 noundef 2, i32 noundef 0)
  %41 = add i32 %.06592, 4
  %42 = tail call zeroext i16 @tvb_get_ntohs(ptr noundef %0, i32 noundef %41)
  %.not74 = icmp ult i16 %42, 4096
  br i1 %.not74, label %47, label %43

43:                                               ; preds = %32
  %44 = lshr i16 %42, 12
  %45 = zext nneg i16 %44 to i32
  %46 = tail call ptr (ptr, ptr, ptr, ptr, ...) @expert_add_info_format(ptr noundef %3, ptr noundef %36, ptr noundef nonnull @ei_bgp_ls_error, ptr noundef nonnull @.str.1913, i32 noundef %45)
  br label %47

47:                                               ; preds = %43, %32
  %48 = load i32, ptr @hf_bgp_ls_nlri_multi_topology_id, align 4
  %49 = tail call ptr @proto_tree_add_item(ptr noundef %36, i32 noundef %48, ptr noundef %0, i32 noundef %41, i32 noundef 2, i32 noundef 0)
  br label %62

50:                                               ; preds = %25
  %51 = load i32, ptr @hf_bgp_ls_tlv_srv6_sid_info, align 4
  %52 = tail call ptr @proto_tree_add_item(ptr noundef %10, i32 noundef %51, ptr noundef %0, i32 noundef %.06592, i32 noundef 20, i32 noundef 0)
  %53 = load i32, ptr @ett_bgp_mp_reach_nlri, align 4
  %54 = tail call ptr @proto_item_add_subtree(ptr noundef %52, i32 noundef %53)
  %55 = load i32, ptr @hf_bgp_ls_type, align 4
  %56 = tail call ptr @proto_tree_add_item(ptr noundef %54, i32 noundef %55, ptr noundef %0, i32 noundef %.06592, i32 noundef 2, i32 noundef 0)
  %57 = load i32, ptr @hf_bgp_ls_length, align 4
  %58 = tail call ptr @proto_tree_add_item(ptr noundef %54, i32 noundef %57, ptr noundef %0, i32 noundef %19, i32 noundef 2, i32 noundef 0)
  %59 = load i32, ptr @hf_bgp_ls_tlv_srv6_sid_info_sid, align 4
  %60 = add i32 %.06592, 4
  %61 = tail call ptr @proto_tree_add_item(ptr noundef %54, i32 noundef %59, ptr noundef %0, i32 noundef %60, i32 noundef 16, i32 noundef 0)
  br label %62

62:                                               ; preds = %50, %47
  %63 = zext nneg i16 %20 to i32
  %64 = add nuw nsw i32 %63, 4
  %65 = sub nsw i32 %.06790, %64
  %66 = add i32 %64, %.06592
  %67 = trunc nuw i32 %64 to i16
  %68 = add i16 %.06691, %67
  %69 = icmp sgt i32 %65, 0
  br i1 %69, label %11, label %.loopexit, !llvm.loop !75

.loopexit:                                        ; preds = %62, %13
  %.1 = phi i16 [ %16, %13 ], [ %68, %62 ]
  %70 = zext i16 %.1 to i32
  br label %71

71:                                               ; preds = %.loopexit, %29, %26, %22
  %.064 = phi i32 [ %70, %.loopexit ], [ -1, %29 ], [ -1, %26 ], [ -1, %22 ]
  ret i32 %.064
}